; Function Attrs: nounwind uwtable
define internal range(i32 0, 2) i32 @test_init_setpythonhome() #0 {
  %1 = tail call ptr @getenv(ptr noundef nonnull @.str.208) #20
  %.not = icmp eq ptr %1, null
  br i1 %.not, label %2, label %3

2:                                                ; preds = %0
  tail call fastcc void @error(ptr noundef nonnull @.str.209)
  br label %10

3:                                                ; preds = %0
  %4 = tail call ptr @Py_DecodeLocale(ptr noundef nonnull %1, ptr noundef null) #20
  %5 = icmp eq ptr %4, null
  br i1 %5, label %6, label %7

6:                                                ; preds = %3
  tail call fastcc void @error(ptr noundef nonnull @.str.210)
  br label %10

7:                                                ; preds = %3
  tail call void @Py_SetPythonHome(ptr noundef nonnull %4) #20
  tail call void @PyMem_RawFree(ptr noundef nonnull %4) #20
  %8 = tail call i32 @putenv(ptr noundef nonnull @.str.211) #20
  tail call void @Py_Initialize() #20
  %9 = tail call i32 @PyRun_SimpleStringFlags(ptr noundef nonnull @.str.123, ptr noundef null) #20
  tail call void @Py_Finalize() #20
  br label %10

10:                                               ; preds = %6, %7, %2
  %.0 = phi i32 [ 1, %2 ], [ 1, %6 ], [ 0, %7 ]
  ret i32 %.0
}